target datalayout = "e-m:e-p270:32:32-p271:32:32-p272:64:64-i64:64-i128:128-f80:128-n8:16:32:64-S128"
target triple = "x86_64-unknown-linux-gnu"

%"class.std::set.0" = type { %"class.std::_Rb_tree.1" }
%"class.std::_Rb_tree.1" = type { %"struct.std::_Rb_tree<QuantLib::Observer *, QuantLib::Observer *, std::_Identity<QuantLib::Observer *>, std::less<QuantLib::Observer *>>::_Rb_tree_impl" }
%"struct.std::_Rb_tree<QuantLib::Observer *, QuantLib::Observer *, std::_Identity<QuantLib::Observer *>, std::less<QuantLib::Observer *>>::_Rb_tree_impl" = type { [8 x i8], %"struct.std::_Rb_tree_header" }
%"struct.std::_Rb_tree_header" = type { %"struct.std::_Rb_tree_node_base", i64 }
%"struct.std::_Rb_tree_node_base" = type { i32, ptr, ptr, ptr }
%"class.QuantLib::Date" = type { i64 }
%"class.boost::detail::shared_count" = type { ptr }
%"class.std::set" = type { %"class.std::_Rb_tree" }
%"class.std::_Rb_tree" = type { %"struct.std::_Rb_tree<boost::shared_ptr<QuantLib::Observable>, boost::shared_ptr<QuantLib::Observable>, std::_Identity<boost::shared_ptr<QuantLib::Observable>>, std::less<boost::shared_ptr<QuantLib::Observable>>>::_Rb_tree_impl" }
%"struct.std::_Rb_tree<boost::shared_ptr<QuantLib::Observable>, boost::shared_ptr<QuantLib::Observable>, std::_Identity<boost::shared_ptr<QuantLib::Observable>>, std::less<boost::shared_ptr<QuantLib::Observable>>>::_Rb_tree_impl" = type { [8 x i8], %"struct.std::_Rb_tree_header" }
%"class.QuantLib::Observable" = type { ptr, %"class.std::set.0" }
%"class.QuantLib::Handle.57" = type { %"class.boost::shared_ptr.58" }
%"class.boost::shared_ptr.58" = type { ptr, %"class.boost::detail::shared_count" }
%"class.boost::shared_ptr.61" = type { ptr, %"class.boost::detail::shared_count" }
%"class.QuantLib::LognormalCmsSpreadPricer" = type { %"class.QuantLib::CmsSpreadCouponPricer.base", %"class.boost::shared_ptr.59", %"class.QuantLib::Handle", ptr, %"class.QuantLib::Date", %"class.QuantLib::Date", %"class.QuantLib::Date", double, double, double, double, double, %"class.boost::shared_ptr.60", %"class.boost::shared_ptr.61", %"class.boost::shared_ptr.62", double, double, double, double, double, double, double, double, double, double, double, i8, i32, double, double, double, double, double, double, double, double, double, double, double, double, double, double, i32, %"class.boost::shared_ptr.63", %"class.boost::shared_ptr.63", %"class.QuantLib::Observer", %"class.QuantLib::Observable" }
%"class.QuantLib::CmsSpreadCouponPricer.base" = type { %"class.QuantLib::FloatingRateCouponPricer.base", %"class.QuantLib::Handle.57" }
%"class.QuantLib::FloatingRateCouponPricer.base" = type { ptr }
%"class.boost::shared_ptr.59" = type { ptr, %"class.boost::detail::shared_count" }
%"class.QuantLib::Handle" = type { %"class.boost::shared_ptr.51" }
%"class.boost::shared_ptr.51" = type { ptr, %"class.boost::detail::shared_count" }
%"class.boost::shared_ptr.60" = type { ptr, %"class.boost::detail::shared_count" }
%"class.boost::shared_ptr.62" = type { ptr, %"class.boost::detail::shared_count" }
%"class.boost::shared_ptr.63" = type { ptr, %"class.boost::detail::shared_count" }
%"class.QuantLib::Observer" = type { ptr, %"class.std::set" }

@.str.20 = private unnamed_addr constant [8 x i8] c"px != 0\00", align 1
@.str.21 = private unnamed_addr constant [102 x i8] c"generated/home/dtcxzyw/WorkSpace/SDK/vcpkg/installed/x64-linux/include/boost/smart_ptr/shared_ptr.hpp\00", align 1

; Function Attrs: mustprogress uwtable
define linkonce_odr noundef nonnull align 8 dereferenceable(57) ptr @_ZNK5boost10shared_ptrIN8QuantLib28CumulativeNormalDistributionEEdeEv(ptr noundef nonnull align 8 dereferenceable(16) %this) #2 comdat align 2 {
entry:
  %this.addr = alloca ptr, align 8
  store ptr %this, ptr %this.addr, align 8, !tbaa !3
  %this1 = load ptr, ptr %this.addr, align 8
  %px = getelementptr inbounds nuw %"class.boost::shared_ptr.61", ptr %this1, i32 0, i32 0
  %0 = load ptr, ptr %px, align 8, !tbaa !45
  %cmp = icmp ne ptr %0, null
  %lnot = xor i1 %cmp, true
  %lnot2 = xor i1 %lnot, true
  %conv = zext i1 %lnot2 to i64
  %expval = call i64 @llvm.expect.i64(i64 %conv, i64 1)
  %tobool = icmp ne i64 %expval, 0
  br i1 %tobool, label %cond.true, label %cond.false

cond.true:                                        ; preds = %entry
  br label %cond.end

cond.false:                                       ; preds = %entry
  call void @_ZN5boost16assertion_failedEPKcS1_S1_l(ptr noundef @.str.20, ptr noundef @__PRETTY_FUNCTION__._ZNK5boost10shared_ptrIN8QuantLib28CumulativeNormalDistributionEEdeEv, ptr noundef @.str.21, i64 noundef 778)
  br label %cond.end

cond.end:                                         ; preds = %cond.false, %cond.true
  %px3 = getelementptr inbounds nuw %"class.boost::shared_ptr.61", ptr %this1, i32 0, i32 0
  %1 = load ptr, ptr %px3, align 8, !tbaa !45
  ret ptr %1
}

; Function Attrs: inlinehint mustprogress nounwind uwtable
define linkonce_odr noundef nonnull align 8 dereferenceable(8) ptr @_ZSt3maxIdERKT_S2_S2_(ptr noundef nonnull align 8 dereferenceable(8) %__a, ptr noundef nonnull align 8 dereferenceable(8) %__b) #5 comdat {
entry:
  %retval = alloca ptr, align 8
  %__a.addr = alloca ptr, align 8
  %__b.addr = alloca ptr, align 8
  store ptr %__a, ptr %__a.addr, align 8, !tbaa !3
  store ptr %__b, ptr %__b.addr, align 8, !tbaa !3
  %0 = load ptr, ptr %__a.addr, align 8, !tbaa !3
  %1 = load double, ptr %0, align 8, !tbaa !20
  %2 = load ptr, ptr %__b.addr, align 8, !tbaa !3
  %3 = load double, ptr %2, align 8, !tbaa !20
  %cmp = fcmp olt double %1, %3
  br i1 %cmp, label %if.then, label %if.end

if.then:                                          ; preds = %entry
  %4 = load ptr, ptr %__b.addr, align 8, !tbaa !3
  store ptr %4, ptr %retval, align 8
  br label %return

if.end:                                           ; preds = %entry
  %5 = load ptr, ptr %__a.addr, align 8, !tbaa !3
  store ptr %5, ptr %retval, align 8
  br label %return

return:                                           ; preds = %if.end, %if.then
  %6 = load ptr, ptr %retval, align 8
  ret ptr %6
}

; Function Attrs: inlinehint mustprogress nounwind uwtable
define linkonce_odr noundef zeroext i1 @_ZN8QuantLib12close_enoughEdd(double noundef %x, double noundef %y) #5 comdat {
entry:
  %retval = alloca i1, align 1
  %x.addr = alloca double, align 8
  %y.addr = alloca double, align 8
  %diff = alloca double, align 8
  %tolerance = alloca double, align 8
  %cleanup.dest.slot = alloca i32, align 4
  store double %x, ptr %x.addr, align 8, !tbaa !20
  store double %y, ptr %y.addr, align 8, !tbaa !20
  %0 = load double, ptr %x.addr, align 8, !tbaa !20
  %1 = load double, ptr %y.addr, align 8, !tbaa !20
  %cmp = fcmp oeq double %0, %1
  br i1 %cmp, label %if.then, label %if.end

if.then:                                          ; preds = %entry
  store i1 true, ptr %retval, align 1
  br label %return

if.end:                                           ; preds = %entry
  call void @llvm.lifetime.start.p0(i64 8, ptr %diff) #15
  %2 = load double, ptr %x.addr, align 8, !tbaa !20
  %3 = load double, ptr %y.addr, align 8, !tbaa !20
  %sub = fsub double %2, %3
  %4 = call double @llvm.fabs.f64(double %sub)
  store double %4, ptr %diff, align 8, !tbaa !20
  call void @llvm.lifetime.start.p0(i64 8, ptr %tolerance) #15
  store double 0x3D05000000000000, ptr %tolerance, align 8, !tbaa !20
  %5 = load double, ptr %x.addr, align 8, !tbaa !20
  %cmp1 = fcmp oeq double %5, 0.000000e+00
  br i1 %cmp1, label %if.then3, label %lor.lhs.false

lor.lhs.false:                                    ; preds = %if.end
  %6 = load double, ptr %y.addr, align 8, !tbaa !20
  %cmp2 = fcmp oeq double %6, 0.000000e+00
  br i1 %cmp2, label %if.then3, label %if.end5

if.then3:                                         ; preds = %lor.lhs.false, %if.end
  %7 = load double, ptr %diff, align 8, !tbaa !20
  %cmp4 = fcmp olt double %7, 0x3A1B900000000000
  store i1 %cmp4, ptr %retval, align 1
  store i32 1, ptr %cleanup.dest.slot, align 4
  br label %cleanup

if.end5:                                          ; preds = %lor.lhs.false
  %8 = load double, ptr %diff, align 8, !tbaa !20
  %9 = load double, ptr %x.addr, align 8, !tbaa !20
  %10 = call double @llvm.fabs.f64(double %9)
  %mul = fmul double 0x3D05000000000000, %10
  %cmp6 = fcmp ole double %8, %mul
  br i1 %cmp6, label %lor.end, label %lor.rhs

lor.rhs:                                          ; preds = %if.end5
  %11 = load double, ptr %diff, align 8, !tbaa !20
  %12 = load double, ptr %y.addr, align 8, !tbaa !20
  %13 = call double @llvm.fabs.f64(double %12)
  %mul7 = fmul double 0x3D05000000000000, %13
  %cmp8 = fcmp ole double %11, %mul7
  br label %lor.end

lor.end:                                          ; preds = %lor.rhs, %if.end5
  %14 = phi i1 [ true, %if.end5 ], [ %cmp8, %lor.rhs ]
  store i1 %14, ptr %retval, align 1
  store i32 1, ptr %cleanup.dest.slot, align 4
  br label %cleanup

cleanup:                                          ; preds = %lor.end, %if.then3
  call void @llvm.lifetime.end.p0(i64 8, ptr %tolerance) #15
  call void @llvm.lifetime.end.p0(i64 8, ptr %diff) #15
  br label %return

return:                                           ; preds = %cleanup, %if.then
  %15 = load i1, ptr %retval, align 1
  ret i1 %15
}

; Function Attrs: mustprogress uwtable
define noundef double @_ZNK8QuantLib24LognormalCmsSpreadPricer16integrand_normalEd(ptr noundef nonnull align 8 dereferenceable(424) %this, double noundef %x) #2 align 2 {
entry:
  %this.addr = alloca ptr, align 8
  %x.addr = alloca double, align 8
  %s = alloca double, align 8
  %beta = alloca double, align 8
  %f = alloca double, align 8
  %ref.tmp = alloca double, align 8
  store ptr %this, ptr %this.addr, align 8, !tbaa !3
  store double %x, ptr %x.addr, align 8, !tbaa !20
  %this1 = load ptr, ptr %this.addr, align 8
  call void @llvm.lifetime.start.p0(i64 8, ptr %s) #15
  %0 = load double, ptr %x.addr, align 8, !tbaa !20
  %mul = fmul double 0x3FF6A09E667F3BCD, %0
  store double %mul, ptr %s, align 8, !tbaa !20
  call void @llvm.lifetime.start.p0(i64 8, ptr %beta) #15
  %phi_ = getelementptr inbounds nuw %"class.QuantLib::LognormalCmsSpreadPricer", ptr %this1, i32 0, i32 30
  %1 = load double, ptr %phi_, align 8, !tbaa !57
  %gearing1_ = getelementptr inbounds nuw %"class.QuantLib::LognormalCmsSpreadPricer", ptr %this1, i32 0, i32 17
  %2 = load double, ptr %gearing1_, align 8, !tbaa !63
  %adjustedRate1_ = getelementptr inbounds nuw %"class.QuantLib::LognormalCmsSpreadPricer", ptr %this1, i32 0, i32 19
  %3 = load double, ptr %adjustedRate1_, align 8, !tbaa !64
  %gearing2_ = getelementptr inbounds nuw %"class.QuantLib::LognormalCmsSpreadPricer", ptr %this1, i32 0, i32 18
  %4 = load double, ptr %gearing2_, align 8, !tbaa !65
  %adjustedRate2_ = getelementptr inbounds nuw %"class.QuantLib::LognormalCmsSpreadPricer", ptr %this1, i32 0, i32 20
  %5 = load double, ptr %adjustedRate2_, align 8, !tbaa !66
  %mul3 = fmul double %4, %5
  %6 = call double @llvm.fmuladd.f64(double %2, double %3, double %mul3)
  %k_ = getelementptr inbounds nuw %"class.QuantLib::LognormalCmsSpreadPricer", ptr %this1, i32 0, i32 39
  %7 = load double, ptr %k_, align 8, !tbaa !49
  %sub = fsub double %6, %7
  %fixingTime_ = getelementptr inbounds nuw %"class.QuantLib::LognormalCmsSpreadPricer", ptr %this1, i32 0, i32 7
  %8 = load double, ptr %fixingTime_, align 8, !tbaa !54
  %call = call double @sqrt(double noundef %8) #15, !tbaa !55
  %rho_ = getelementptr inbounds nuw %"class.QuantLib::LognormalCmsSpreadPricer", ptr %this1, i32 0, i32 25
  %9 = load double, ptr %rho_, align 8, !tbaa !61
  %gearing1_4 = getelementptr inbounds nuw %"class.QuantLib::LognormalCmsSpreadPricer", ptr %this1, i32 0, i32 17
  %10 = load double, ptr %gearing1_4, align 8, !tbaa !63
  %mul5 = fmul double %9, %10
  %vol1_ = getelementptr inbounds nuw %"class.QuantLib::LognormalCmsSpreadPricer", ptr %this1, i32 0, i32 21
  %11 = load double, ptr %vol1_, align 8, !tbaa !67
  %gearing2_7 = getelementptr inbounds nuw %"class.QuantLib::LognormalCmsSpreadPricer", ptr %this1, i32 0, i32 18
  %12 = load double, ptr %gearing2_7, align 8, !tbaa !65
  %vol2_ = getelementptr inbounds nuw %"class.QuantLib::LognormalCmsSpreadPricer", ptr %this1, i32 0, i32 22
  %13 = load double, ptr %vol2_, align 8, !tbaa !68
  %mul8 = fmul double %12, %13
  %14 = call double @llvm.fmuladd.f64(double %mul5, double %11, double %mul8)
  %mul9 = fmul double %call, %14
  %15 = load double, ptr %s, align 8, !tbaa !20
  %16 = call double @llvm.fmuladd.f64(double %mul9, double %15, double %sub)
  %mul11 = fmul double %1, %16
  store double %mul11, ptr %beta, align 8, !tbaa !20
  call void @llvm.lifetime.start.p0(i64 8, ptr %f) #15
  %alpha_ = getelementptr inbounds nuw %"class.QuantLib::LognormalCmsSpreadPricer", ptr %this1, i32 0, i32 40
  %17 = load double, ptr %alpha_, align 8, !tbaa !69
  %call12 = call noundef zeroext i1 @_ZN8QuantLib12close_enoughEdd(double noundef %17, double noundef 0.000000e+00)
  call void @llvm.lifetime.start.p0(i64 8, ptr %ref.tmp) #15
  br i1 %call12, label %cond.true, label %cond.false

cond.true:                                        ; preds = %entry
  store double 0.000000e+00, ptr %ref.tmp, align 8, !tbaa !20
  %call13 = call noundef nonnull align 8 dereferenceable(8) ptr @_ZSt3maxIdERKT_S2_S2_(ptr noundef nonnull align 8 dereferenceable(8) %beta, ptr noundef nonnull align 8 dereferenceable(8) %ref.tmp)
  %18 = load double, ptr %call13, align 8, !tbaa !20
  br label %cond.end

cond.false:                                       ; preds = %entry
  %psi_ = getelementptr inbounds nuw %"class.QuantLib::LognormalCmsSpreadPricer", ptr %this1, i32 0, i32 41
  %19 = load double, ptr %psi_, align 8, !tbaa !70
  %alpha_14 = getelementptr inbounds nuw %"class.QuantLib::LognormalCmsSpreadPricer", ptr %this1, i32 0, i32 40
  %20 = load double, ptr %alpha_14, align 8, !tbaa !69
  %mul15 = fmul double %19, %20
  %div = fdiv double %mul15, 0x40040D931FF62706
  %21 = load double, ptr %beta, align 8, !tbaa !20
  %fneg = fneg double %21
  %22 = load double, ptr %beta, align 8, !tbaa !20
  %mul16 = fmul double %fneg, %22
  %alpha_17 = getelementptr inbounds nuw %"class.QuantLib::LognormalCmsSpreadPricer", ptr %this1, i32 0, i32 40
  %23 = load double, ptr %alpha_17, align 8, !tbaa !69
  %mul18 = fmul double 2.000000e+00, %23
  %alpha_19 = getelementptr inbounds nuw %"class.QuantLib::LognormalCmsSpreadPricer", ptr %this1, i32 0, i32 40
  %24 = load double, ptr %alpha_19, align 8, !tbaa !69
  %mul20 = fmul double %mul18, %24
  %div21 = fdiv double %mul16, %mul20
  %call22 = call double @exp(double noundef %div21) #15, !tbaa !55
  %25 = load double, ptr %beta, align 8, !tbaa !20
  %cnd_ = getelementptr inbounds nuw %"class.QuantLib::LognormalCmsSpreadPricer", ptr %this1, i32 0, i32 13
  %call24 = call noundef nonnull align 8 dereferenceable(57) ptr @_ZNK5boost10shared_ptrIN8QuantLib28CumulativeNormalDistributionEEdeEv(ptr noundef nonnull align 8 dereferenceable(16) %cnd_)
  %psi_25 = getelementptr inbounds nuw %"class.QuantLib::LognormalCmsSpreadPricer", ptr %this1, i32 0, i32 41
  %26 = load double, ptr %psi_25, align 8, !tbaa !70
  %fneg26 = fneg double %26
  %27 = load double, ptr %beta, align 8, !tbaa !20
  %mul27 = fmul double %fneg26, %27
  %alpha_28 = getelementptr inbounds nuw %"class.QuantLib::LognormalCmsSpreadPricer", ptr %this1, i32 0, i32 40
  %28 = load double, ptr %alpha_28, align 8, !tbaa !69
  %div29 = fdiv double %mul27, %28
  %call30 = call noundef double @_ZNK8QuantLib28CumulativeNormalDistributionclEd(ptr noundef nonnull align 8 dereferenceable(57) %call24, double noundef %div29)
  %sub31 = fsub double 1.000000e+00, %call30
  %mul32 = fmul double %25, %sub31
  %29 = call double @llvm.fmuladd.f64(double %div, double %call22, double %mul32)
  br label %cond.end

cond.end:                                         ; preds = %cond.false, %cond.true
  %cond = phi double [ %18, %cond.true ], [ %29, %cond.false ]
  call void @llvm.lifetime.end.p0(i64 8, ptr %ref.tmp) #15
  store double %cond, ptr %f, align 8, !tbaa !20
  %30 = load double, ptr %x.addr, align 8, !tbaa !20
  %fneg33 = fneg double %30
  %31 = load double, ptr %x.addr, align 8, !tbaa !20
  %mul34 = fmul double %fneg33, %31
  %call35 = call double @exp(double noundef %mul34) #15, !tbaa !55
  %32 = load double, ptr %f, align 8, !tbaa !20
  %mul36 = fmul double %call35, %32
  call void @llvm.lifetime.end.p0(i64 8, ptr %f) #15
  call void @llvm.lifetime.end.p0(i64 8, ptr %beta) #15
  call void @llvm.lifetime.end.p0(i64 8, ptr %s) #15
  ret double %mul36
}