; Function Attrs: mustprogress uwtable
define noundef double @_ZNK8QuantLib24LognormalCmsSpreadPricer16integrand_normalEd(ptr nocapture noundef nonnull readonly align 8 dereferenceable(424) %this, double noundef %x) local_unnamed_addr #7 align 2 {
entry:
  %mul = fmul double %x, 0x3FF6A09E667F3BCD
  %phi_ = getelementptr inbounds nuw i8, ptr %this, i64 288
  %0 = load double, ptr %phi_, align 8, !tbaa !121
  %gearing1_ = getelementptr inbounds nuw i8, ptr %this, i64 192
  %1 = load double, ptr %gearing1_, align 8, !tbaa !127
  %adjustedRate1_ = getelementptr inbounds nuw i8, ptr %this, i64 208
  %2 = load double, ptr %adjustedRate1_, align 8, !tbaa !128
  %gearing2_ = getelementptr inbounds nuw i8, ptr %this, i64 200
  %3 = load double, ptr %gearing2_, align 8, !tbaa !129
  %adjustedRate2_ = getelementptr inbounds nuw i8, ptr %this, i64 216
  %4 = load double, ptr %adjustedRate2_, align 8, !tbaa !130
  %mul3 = fmul double %3, %4
  %5 = tail call double @llvm.fmuladd.f64(double %1, double %2, double %mul3)
  %k_ = getelementptr inbounds nuw i8, ptr %this, i64 360
  %6 = load double, ptr %k_, align 8, !tbaa !114
  %sub = fsub double %5, %6
  %fixingTime_ = getelementptr inbounds nuw i8, ptr %this, i64 88
  %7 = load double, ptr %fixingTime_, align 8, !tbaa !119
  %call = tail call double @sqrt(double noundef %7) #27, !tbaa !120
  %rho_ = getelementptr inbounds nuw i8, ptr %this, i64 256
  %8 = load double, ptr %rho_, align 8, !tbaa !125
  %mul5 = fmul double %1, %8
  %vol1_ = getelementptr inbounds nuw i8, ptr %this, i64 224
  %9 = load double, ptr %vol1_, align 8, !tbaa !131
  %vol2_ = getelementptr inbounds nuw i8, ptr %this, i64 232
  %10 = load double, ptr %vol2_, align 8, !tbaa !132
  %mul8 = fmul double %3, %10
  %11 = tail call double @llvm.fmuladd.f64(double %mul5, double %9, double %mul8)
  %mul9 = fmul double %call, %11
  %12 = tail call double @llvm.fmuladd.f64(double %mul9, double %mul, double %sub)
  %mul11 = fmul double %0, %12
  %alpha_ = getelementptr inbounds nuw i8, ptr %this, i64 368
  %13 = load double, ptr %alpha_, align 8, !tbaa !133
  %cmp.i = fcmp oeq double %13, 0.000000e+00
  %14 = tail call double @llvm.fabs.f64(double %13)
  %cmp4.i = fcmp olt double %14, 0x3A1B900000000000
  %or.cond = or i1 %cmp.i, %cmp4.i
  br i1 %or.cond, label %cond.true, label %cond.false

cond.true:                                        ; preds = %entry
  %cmp.i3 = fcmp olt double %mul11, 0.000000e+00
  %.sroa.speculated = select i1 %cmp.i3, double 0.000000e+00, double %mul11
  br label %cond.end

cond.false:                                       ; preds = %entry
  %psi_ = getelementptr inbounds nuw i8, ptr %this, i64 376
  %15 = load double, ptr %psi_, align 8, !tbaa !134
  %mul15 = fmul double %13, %15
  %div = fdiv double %mul15, 0x40040D931FF62706
  %fneg = fneg double %mul11
  %mul16 = fmul double %mul11, %fneg
  %mul18 = fmul double %13, 2.000000e+00
  %mul20 = fmul double %13, %mul18
  %div21 = fdiv double %mul16, %mul20
  %call22 = tail call double @exp(double noundef %div21) #27, !tbaa !120
  %cnd_ = getelementptr inbounds nuw i8, ptr %this, i64 144
  %16 = load ptr, ptr %cnd_, align 8, !tbaa !67
  %cmp.not.i = icmp eq ptr %16, null
  br i1 %cmp.not.i, label %cond.false.i, label %_ZNK5boost10shared_ptrIN8QuantLib28CumulativeNormalDistributionEEdeEv.exit, !prof !41

cond.false.i:                                     ; preds = %cond.false
  tail call void @_ZN5boost16assertion_failedEPKcS1_S1_l(ptr noundef nonnull @.str.20, ptr noundef nonnull @__PRETTY_FUNCTION__._ZNK5boost10shared_ptrIN8QuantLib28CumulativeNormalDistributionEEdeEv, ptr noundef nonnull @.str.21, i64 noundef 778)
  %.pre.i = load ptr, ptr %cnd_, align 8, !tbaa !67
  %.pre = load double, ptr %psi_, align 8, !tbaa !134
  %.pre8 = load double, ptr %alpha_, align 8, !tbaa !133
  br label %_ZNK5boost10shared_ptrIN8QuantLib28CumulativeNormalDistributionEEdeEv.exit

_ZNK5boost10shared_ptrIN8QuantLib28CumulativeNormalDistributionEEdeEv.exit: ; preds = %cond.false, %cond.false.i
  %17 = phi double [ %13, %cond.false ], [ %.pre8, %cond.false.i ]
  %18 = phi double [ %15, %cond.false ], [ %.pre, %cond.false.i ]
  %19 = phi ptr [ %16, %cond.false ], [ %.pre.i, %cond.false.i ]
  %fneg26 = fneg double %18
  %mul27 = fmul double %mul11, %fneg26
  %div29 = fdiv double %mul27, %17
  %call30 = tail call noundef double @_ZNK8QuantLib28CumulativeNormalDistributionclEd(ptr noundef nonnull align 8 dereferenceable(57) %19, double noundef %div29)
  %sub31 = fsub double 1.000000e+00, %call30
  %mul32 = fmul double %mul11, %sub31
  %20 = tail call double @llvm.fmuladd.f64(double %div, double %call22, double %mul32)
  br label %cond.end

cond.end:                                         ; preds = %_ZNK5boost10shared_ptrIN8QuantLib28CumulativeNormalDistributionEEdeEv.exit, %cond.true
  %cond = phi double [ %.sroa.speculated, %cond.true ], [ %20, %_ZNK5boost10shared_ptrIN8QuantLib28CumulativeNormalDistributionEEdeEv.exit ]
  %fneg33 = fneg double %x
  %mul34 = fmul double %x, %fneg33
  %call35 = tail call double @exp(double noundef %mul34) #27, !tbaa !120
  %mul36 = fmul double %cond, %call35
  ret double %mul36
}